; Function Attrs: mustprogress uwtable
define void @_ZN13sentencepiece19SelfTestData_SampleC2EPN6google8protobuf5ArenaE(ptr noundef nonnull writeonly align 8 captures(none) dereferenceable(40) initializes((0, 40)) %0, ptr noundef %1) unnamed_addr #3 align 2 personality ptr @__gxx_personality_v0 {
_ZN6google8protobuf8internal7HasBitsILm1EEC2Ev.exit:
  %2 = getelementptr inbounds nuw i8, ptr %0, i64 8
  store ptr %1, ptr %2, align 8, !tbaa !3
  store ptr getelementptr inbounds nuw inrange(-16, 112) (i8, ptr @_ZTVN13sentencepiece19SelfTestData_SampleE, i64 16), ptr %0, align 8, !tbaa !8
  %.ptr = getelementptr inbounds nuw i8, ptr %0, i64 16
  store i32 0, ptr %.ptr, align 8, !tbaa !11
  %3 = getelementptr inbounds nuw i8, ptr %0, i64 20
  store i32 0, ptr %3, align 4, !tbaa !13
  %4 = load atomic i32, ptr @scc_info_SelfTestData_Sample_sentencepiece_5fmodel_2eproto acquire, align 8
  %.not.i.i = icmp eq i32 %4, 0
  br i1 %.not.i.i, label %6, label %5, !prof !10

5:                                                ; preds = %_ZN6google8protobuf8internal7HasBitsILm1EEC2Ev.exit
  tail call void @_ZN6google8protobuf8internal11InitSCCImplEPNS1_11SCCInfoBaseE(ptr noundef nonnull @scc_info_SelfTestData_Sample_sentencepiece_5fmodel_2eproto)
  br label %6

6:                                                ; preds = %5, %_ZN6google8protobuf8internal7HasBitsILm1EEC2Ev.exit
  %7 = getelementptr inbounds nuw i8, ptr %0, i64 24
  store ptr @_ZN6google8protobuf8internal26fixed_address_empty_stringE, ptr %7, align 8, !tbaa !15
  %8 = getelementptr inbounds nuw i8, ptr %0, i64 32
  store ptr @_ZN6google8protobuf8internal26fixed_address_empty_stringE, ptr %8, align 8, !tbaa !15
  ret void
}